
objs/Blink.elf:     file format elf32-littleriscv
objs/Blink.elf
architecture: riscv:rv32, flags 0x00000112:
EXEC_P, HAS_SYMS, D_PAGED
start address 0x00000000

Program Header:
0x70000003 off    0x00002d45 vaddr 0x00000000 paddr 0x00000000 align 2**0
         filesz 0x0000003a memsz 0x00000000 flags r--
    LOAD off    0x00001000 vaddr 0x00000000 paddr 0x00000000 align 2**12
         filesz 0x0000034c memsz 0x0000034c flags r-x

Sections:
Idx Name          Size      VMA       LMA       File off  Algn
  0 .init         00000004  00000000  00000000  00001000  2**1
                  CONTENTS, ALLOC, LOAD, READONLY, CODE
  1 .vector       0000013c  00000004  00000004  00001004  2**1
                  CONTENTS, ALLOC, LOAD, READONLY, CODE
  2 .text         0000020c  00000140  00000140  00001140  2**1
                  CONTENTS, ALLOC, LOAD, READONLY, CODE
  3 .fini         00000000  0000034c  0000034c  0000134c  2**0
                  CONTENTS, ALLOC, LOAD, CODE
  4 .dalign       00000000  20000000  20000000  0000134c  2**0
                  CONTENTS
  5 .dlalign      00000000  0000034c  0000034c  0000134c  2**0
                  CONTENTS
  6 .data         00000000  20000000  20000000  0000134c  2**0
                  CONTENTS, ALLOC, LOAD, DATA
  7 .bss          00000000  20000000  20000000  00000000  2**0
                  ALLOC
  8 .stack        00000000  20010000  20010000  0000134c  2**0
                  CONTENTS
  9 .debug_info   00000807  00000000  00000000  0000134c  2**0
                  CONTENTS, READONLY, DEBUGGING, OCTETS
 10 .debug_abbrev 000003ba  00000000  00000000  00001b53  2**0
                  CONTENTS, READONLY, DEBUGGING, OCTETS
 11 .debug_aranges 000000b0  00000000  00000000  00001f10  2**3
                  CONTENTS, READONLY, DEBUGGING, OCTETS
 12 .debug_rnglists 00000086  00000000  00000000  00001fc0  2**0
                  CONTENTS, READONLY, DEBUGGING, OCTETS
 13 .debug_line   00000796  00000000  00000000  00002046  2**0
                  CONTENTS, READONLY, DEBUGGING, OCTETS
 14 .debug_str    000003cf  00000000  00000000  000027dc  2**0
                  CONTENTS, READONLY, DEBUGGING, OCTETS
 15 .debug_line_str 00000167  00000000  00000000  00002bab  2**0
                  CONTENTS, READONLY, DEBUGGING, OCTETS
 16 .comment      00000033  00000000  00000000  00002d12  2**0
                  CONTENTS, READONLY
 17 .riscv.attributes 0000003a  00000000  00000000  00002d45  2**0
                  CONTENTS, READONLY
 18 .debug_frame  000000ac  00000000  00000000  00002d80  2**2
                  CONTENTS, READONLY, DEBUGGING, OCTETS
 19 .debug_loclists 000000f8  00000000  00000000  00002e2c  2**0
                  CONTENTS, READONLY, DEBUGGING, OCTETS
SYMBOL TABLE:
00000000 l    d  .init	00000000 .init
00000004 l    d  .vector	00000000 .vector
00000140 l    d  .text	00000000 .text
0000034c l    d  .fini	00000000 .fini
20000000 l    d  .dalign	00000000 .dalign
0000034c l    d  .dlalign	00000000 .dlalign
20000000 l    d  .data	00000000 .data
20000000 l    d  .bss	00000000 .bss
20010000 l    d  .stack	00000000 .stack
00000000 l    d  .debug_info	00000000 .debug_info
00000000 l    d  .debug_abbrev	00000000 .debug_abbrev
00000000 l    d  .debug_aranges	00000000 .debug_aranges
00000000 l    d  .debug_rnglists	00000000 .debug_rnglists
00000000 l    d  .debug_line	00000000 .debug_line
00000000 l    d  .debug_str	00000000 .debug_str
00000000 l    d  .debug_line_str	00000000 .debug_line_str
00000000 l    d  .comment	00000000 .comment
00000000 l    d  .riscv.attributes	00000000 .riscv.attributes
00000000 l    d  .debug_frame	00000000 .debug_frame
00000000 l    d  .debug_loclists	00000000 .debug_loclists
00000000 l    df *ABS*	00000000 startup_ch32v20x_D8W.o
00000004 l       .vector	00000000 _vector_base
00000000 l    df *ABS*	00000000 save-restore.o
00000000 l    df *ABS*	00000000 ch32v20x_it.c
00000000 l    df *ABS*	00000000 main.c
00000000 l    df *ABS*	00000000 system_ch32v20x.c
000002bc  w      .text	00000000 EXTI2_IRQHandler
20000800 g       .data	00000000 __global_pointer$
00000148 g     F .text	00000028 .hidden __riscv_save_8
000002bc  w      .text	00000000 TIM1_CC_IRQHandler
000001a2 g     F .text	00000010 HardFault_Handler
00000194 g     F .text	0000000c .hidden __riscv_restore_3
000002bc  w      .text	00000000 SysTick_Handler
000002bc  w      .text	00000000 PVD_IRQHandler
00000180 g     F .text	00000020 .hidden __riscv_restore_10
000001a0 g     F .text	00000002 NMI_Handler
000002bc  w      .text	00000000 EXTI3_IRQHandler
00000148 g     F .text	00000028 .hidden __riscv_save_11
20000000 g       .bss	00000000 _sbss
000002bc  w      .text	00000000 USBFS_IRQHandler
00000194 g     F .text	0000000c .hidden __riscv_restore_2
000002bc  w      .text	00000000 EXTI0_IRQHandler
000002bc  w      .text	00000000 I2C2_EV_IRQHandler
00000004 g       .init	00000000 _einit
00000140 g     F .text	00000030 .hidden __riscv_save_12
000002bc  w      .text	00000000 ADC1_2_IRQHandler
000002bc  w      .text	00000000 BB_IRQHandler
000002bc  w      .text	00000000 Break_Point_Handler
00000180 g     F .text	00000020 .hidden __riscv_restore_11
000002bc  w      .text	00000000 SPI1_IRQHandler
000002bc  w      .text	00000000 TAMPER_IRQHandler
00000170 g     F .text	0000000c .hidden __riscv_save_1
00000194 g     F .text	0000000c .hidden __riscv_restore_0
00000156 g     F .text	0000001a .hidden __riscv_save_7
000002bc  w      .text	00000000 OSCWakeUp_IRQHandler
000002bc  w      .text	00000000 Ecall_M_Mode_Handler
0000018a g     F .text	00000016 .hidden __riscv_restore_5
000002bc  w      .text	00000000 DMA1_Channel4_IRQHandler
0000018a g     F .text	00000016 .hidden __riscv_restore_6
000002bc  w      .text	00000000 USART3_IRQHandler
000002bc  w      .text	00000000 RTC_IRQHandler
20000000 g       .bss	00000000 _ebss
000002bc  w      .text	00000000 DMA1_Channel7_IRQHandler
000002bc  w      .text	00000000 CAN1_RX1_IRQHandler
000002bc  w      .text	00000000 TIM4_IRQHandler
00000148 g     F .text	00000028 .hidden __riscv_save_9
00000156 g     F .text	0000001a .hidden __riscv_save_4
000002bc  w      .text	00000000 I2C1_EV_IRQHandler
000001b2 g     F .text	00000028 GPIO_Toggle_INIT
000002bc  w      .text	00000000 DMA1_Channel6_IRQHandler
000002bc  w      .text	00000000 UART4_IRQHandler
000002bc  w      .text	00000000 TIM3_IRQHandler
000002bc  w      .text	00000000 RCC_IRQHandler
00000170 g     F .text	0000000c .hidden __riscv_save_3
000002bc  w      .text	00000000 TIM1_TRG_COM_IRQHandler
000002bc  w      .text	00000000 DMA1_Channel1_IRQHandler
00000000 g       .init	00000000 _start
000002bc  w      .text	00000000 EXTI15_10_IRQHandler
000002bc  w      .text	00000000 DMA1_Channel8_IRQHandler
20000000 g       .dalign	00000000 _data_vma
000002bc  w      .text	00000000 TIM5_IRQHandler
000002bc  w      .text	00000000 EXTI9_5_IRQHandler
00000148 g     F .text	00000028 .hidden __riscv_save_10
0000018a g     F .text	00000016 .hidden __riscv_restore_4
00000180 g     F .text	00000020 .hidden __riscv_restore_8
00000156 g     F .text	0000001a .hidden __riscv_save_6
000002bc  w      .text	00000000 SPI2_IRQHandler
000002bc  w      .text	00000000 OSC32KCal_IRQHandler
00000180 g     F .text	00000020 .hidden __riscv_restore_9
0000018a g     F .text	00000016 .hidden __riscv_restore_7
000001ee g     F .text	0000008c main
000002bc  w      .text	00000000 DMA1_Channel5_IRQHandler
000002bc  w      .text	00000000 EXTI4_IRQHandler
000002bc  w      .text	00000000 USB_LP_CAN1_RX0_IRQHandler
0000027a g     F .text	00000042 SystemInit
000002bc  w      .text	00000000 USB_HP_CAN1_TX_IRQHandler
000002bc  w      .text	00000000 LLE_IRQHandler
00000000 g       .init	00000000 _sinit
000002bc  w      .text	00000000 DMA1_Channel3_IRQHandler
000002bc  w      .text	00000000 ETH_IRQHandler
000002bc  w      .text	00000000 TIM1_UP_IRQHandler
000002bc  w      .text	00000000 WWDG_IRQHandler
000002bc  w      .text	00000000 Ecall_U_Mode_Handler
000002bc  w      .text	00000000 TIM2_IRQHandler
20010000 g       .stack	00000000 _eusrstack
00000170 g     F .text	0000000c .hidden __riscv_save_2
000002bc  w      .text	00000000 SW_Handler
000002bc  w      .text	00000000 TIM1_BRK_IRQHandler
000002bc  w      .text	00000000 EXTI1_IRQHandler
00000156 g     F .text	0000001a .hidden __riscv_save_5
20000000 g       .data	00000000 _edata
20000000 g       .bss	00000000 _end
000001da g     F .text	00000014 FirmwareDelay
000002bc  w      .text	00000000 RTCAlarm_IRQHandler
0000034c g       .dlalign	00000000 _data_lma
000002bc  w      .text	00000000 USART2_IRQHandler
000002bc  w      .text	00000000 ETHWakeUp_IRQHandler
000002bc  w      .text	00000000 I2C2_ER_IRQHandler
000002bc  w      .text	00000000 DMA1_Channel2_IRQHandler
0000017c g     F .text	00000024 .hidden __riscv_restore_12
000002be  w      .text	00000000 handle_reset
000002bc  w      .text	00000000 CAN1_SCE_IRQHandler
000002bc  w      .text	00000000 FLASH_IRQHandler
00000170 g     F .text	0000000c .hidden __riscv_save_0
000002bc  w      .text	00000000 USBFSWakeUp_IRQHandler
000002bc  w      .text	00000000 USART1_IRQHandler
000002bc  w      .text	00000000 I2C1_ER_IRQHandler
00000194 g     F .text	0000000c .hidden __riscv_restore_1
000002bc  w      .text	00000000 USBWakeUp_IRQHandler



Disassembly of section .init:

00000000 <_sinit>:
   0:	2be0006f          	j	2be <handle_reset>

Disassembly of section .vector:

00000004 <_vector_base>:
	...
   c:	000001a0          	.word	0x000001a0
  10:	000001a2          	.word	0x000001a2
  14:	00000000          	.word	0x00000000
  18:	000002bc          	.word	0x000002bc
	...
  24:	000002bc          	.word	0x000002bc
  28:	000002bc          	.word	0x000002bc
	...
  34:	000002bc          	.word	0x000002bc
  38:	00000000          	.word	0x00000000
  3c:	000002bc          	.word	0x000002bc
  40:	00000000          	.word	0x00000000
  44:	000002bc          	.word	0x000002bc
  48:	000002bc          	.word	0x000002bc
  4c:	000002bc          	.word	0x000002bc
  50:	000002bc          	.word	0x000002bc
  54:	000002bc          	.word	0x000002bc
  58:	000002bc          	.word	0x000002bc
  5c:	000002bc          	.word	0x000002bc
  60:	000002bc          	.word	0x000002bc
  64:	000002bc          	.word	0x000002bc
  68:	000002bc          	.word	0x000002bc
  6c:	000002bc          	.word	0x000002bc
  70:	000002bc          	.word	0x000002bc
  74:	000002bc          	.word	0x000002bc
  78:	000002bc          	.word	0x000002bc
  7c:	000002bc          	.word	0x000002bc
  80:	000002bc          	.word	0x000002bc
  84:	000002bc          	.word	0x000002bc
  88:	000002bc          	.word	0x000002bc
  8c:	000002bc          	.word	0x000002bc
  90:	000002bc          	.word	0x000002bc
  94:	000002bc          	.word	0x000002bc
  98:	000002bc          	.word	0x000002bc
  9c:	000002bc          	.word	0x000002bc
  a0:	000002bc          	.word	0x000002bc
  a4:	000002bc          	.word	0x000002bc
  a8:	000002bc          	.word	0x000002bc
  ac:	000002bc          	.word	0x000002bc
  b0:	000002bc          	.word	0x000002bc
  b4:	000002bc          	.word	0x000002bc
  b8:	000002bc          	.word	0x000002bc
  bc:	000002bc          	.word	0x000002bc
  c0:	000002bc          	.word	0x000002bc
  c4:	000002bc          	.word	0x000002bc
  c8:	000002bc          	.word	0x000002bc
  cc:	000002bc          	.word	0x000002bc
  d0:	000002bc          	.word	0x000002bc
  d4:	000002bc          	.word	0x000002bc
  d8:	000002bc          	.word	0x000002bc
  dc:	000002bc          	.word	0x000002bc
  e0:	000002bc          	.word	0x000002bc
  e4:	000002bc          	.word	0x000002bc
  e8:	000002bc          	.word	0x000002bc
  ec:	000002bc          	.word	0x000002bc
  f0:	000002bc          	.word	0x000002bc
  f4:	000002bc          	.word	0x000002bc
  f8:	000002bc          	.word	0x000002bc
  fc:	000002bc          	.word	0x000002bc
 100:	000002bc          	.word	0x000002bc
 104:	000002bc          	.word	0x000002bc
 108:	000002bc          	.word	0x000002bc
 10c:	000002bc          	.word	0x000002bc
 110:	000002bc          	.word	0x000002bc
 114:	000002bc          	.word	0x000002bc
 118:	000002bc          	.word	0x000002bc
	...

Disassembly of section .text:

00000140 <__riscv_save_12>:
 140:	7139                	addi	sp,sp,-64
 142:	4301                	li	t1,0
 144:	c66e                	sw	s11,12(sp)
 146:	a019                	j	14c <__riscv_save_10+0x4>

00000148 <__riscv_save_10>:
 148:	7139                	addi	sp,sp,-64
 14a:	5341                	li	t1,-16
 14c:	c86a                	sw	s10,16(sp)
 14e:	ca66                	sw	s9,20(sp)
 150:	cc62                	sw	s8,24(sp)
 152:	ce5e                	sw	s7,28(sp)
 154:	a019                	j	15a <__riscv_save_4+0x4>

00000156 <__riscv_save_4>:
 156:	7139                	addi	sp,sp,-64
 158:	5301                	li	t1,-32
 15a:	d05a                	sw	s6,32(sp)
 15c:	d256                	sw	s5,36(sp)
 15e:	d452                	sw	s4,40(sp)
 160:	d64e                	sw	s3,44(sp)
 162:	d84a                	sw	s2,48(sp)
 164:	da26                	sw	s1,52(sp)
 166:	dc22                	sw	s0,56(sp)
 168:	de06                	sw	ra,60(sp)
 16a:	40610133          	sub	sp,sp,t1
 16e:	8282                	jr	t0

00000170 <__riscv_save_0>:
 170:	1141                	addi	sp,sp,-16
 172:	c04a                	sw	s2,0(sp)
 174:	c226                	sw	s1,4(sp)
 176:	c422                	sw	s0,8(sp)
 178:	c606                	sw	ra,12(sp)
 17a:	8282                	jr	t0

0000017c <__riscv_restore_12>:
 17c:	4db2                	lw	s11,12(sp)
 17e:	0141                	addi	sp,sp,16

00000180 <__riscv_restore_10>:
 180:	4d02                	lw	s10,0(sp)
 182:	4c92                	lw	s9,4(sp)
 184:	4c22                	lw	s8,8(sp)
 186:	4bb2                	lw	s7,12(sp)
 188:	0141                	addi	sp,sp,16

0000018a <__riscv_restore_4>:
 18a:	4b02                	lw	s6,0(sp)
 18c:	4a92                	lw	s5,4(sp)
 18e:	4a22                	lw	s4,8(sp)
 190:	49b2                	lw	s3,12(sp)
 192:	0141                	addi	sp,sp,16

00000194 <__riscv_restore_0>:
 194:	4902                	lw	s2,0(sp)
 196:	4492                	lw	s1,4(sp)
 198:	4422                	lw	s0,8(sp)
 19a:	40b2                	lw	ra,12(sp)
 19c:	0141                	addi	sp,sp,16
 19e:	8082                	ret

000001a0 <NMI_Handler>:
 1a0:	a001                	j	1a0 <NMI_Handler>

000001a2 <HardFault_Handler>:
 1a2:	beef07b7          	lui	a5,0xbeef0
 1a6:	e000e737          	lui	a4,0xe000e
 1aa:	08078793          	addi	a5,a5,128 # beef0080 <_eusrstack+0x9eee0080>
 1ae:	c73c                	sw	a5,72(a4)
 1b0:	a001                	j	1b0 <HardFault_Handler+0xe>

000001b2 <GPIO_Toggle_INIT>:
 1b2:	40021737          	lui	a4,0x40021
 1b6:	4f1c                	lw	a5,24(a4)
 1b8:	66c1                	lui	a3,0x10
 1ba:	16c1                	addi	a3,a3,-16 # fff0 <_data_lma+0xfca4>
 1bc:	0047e793          	ori	a5,a5,4
 1c0:	cf1c                	sw	a5,24(a4)
 1c2:	400117b7          	lui	a5,0x40011
 1c6:	80078793          	addi	a5,a5,-2048 # 40010800 <_eusrstack+0x20000800>
 1ca:	4398                	lw	a4,0(a5)
 1cc:	8f75                	and	a4,a4,a3
 1ce:	c398                	sw	a4,0(a5)
 1d0:	4398                	lw	a4,0(a5)
 1d2:	00776713          	ori	a4,a4,7
 1d6:	c398                	sw	a4,0(a5)
 1d8:	8082                	ret

000001da <FirmwareDelay>:
 1da:	6741                	lui	a4,0x10
 1dc:	e111                	bnez	a0,1e0 <FirmwareDelay+0x6>
 1de:	8082                	ret
 1e0:	fff70793          	addi	a5,a4,-1 # ffff <_data_lma+0xfcb3>
 1e4:	0001                	nop
 1e6:	17fd                	addi	a5,a5,-1
 1e8:	fff5                	bnez	a5,1e4 <FirmwareDelay+0xa>
 1ea:	157d                	addi	a0,a0,-1
 1ec:	bfc5                	j	1dc <FirmwareDelay+0x2>

000001ee <main>:
 1ee:	f83ff2ef          	jal	t0,170 <__riscv_save_0>
 1f2:	400247b7          	lui	a5,0x40024
 1f6:	80078793          	addi	a5,a5,-2048 # 40023800 <_eusrstack+0x20013800>
 1fa:	4398                	lw	a4,0(a5)
 1fc:	ffc106b7          	lui	a3,0xffc10
 200:	16fd                	addi	a3,a3,-1 # ffc0ffff <_eusrstack+0xdfbfffff>
 202:	01076713          	ori	a4,a4,16
 206:	c398                	sw	a4,0(a5)
 208:	400217b7          	lui	a5,0x40021
 20c:	43d8                	lw	a4,4(a5)
 20e:	c3d8                	sw	a4,4(a5)
 210:	43d8                	lw	a4,4(a5)
 212:	c3d8                	sw	a4,4(a5)
 214:	43d8                	lw	a4,4(a5)
 216:	40076713          	ori	a4,a4,1024
 21a:	c3d8                	sw	a4,4(a5)
 21c:	43d8                	lw	a4,4(a5)
 21e:	8f75                	and	a4,a4,a3
 220:	c3d8                	sw	a4,4(a5)
 222:	43d8                	lw	a4,4(a5)
 224:	003c06b7          	lui	a3,0x3c0
 228:	8f55                	or	a4,a4,a3
 22a:	c3d8                	sw	a4,4(a5)
 22c:	4398                	lw	a4,0(a5)
 22e:	010006b7          	lui	a3,0x1000
 232:	8f55                	or	a4,a4,a3
 234:	c398                	sw	a4,0(a5)
 236:	020006b7          	lui	a3,0x2000
 23a:	4398                	lw	a4,0(a5)
 23c:	8f75                	and	a4,a4,a3
 23e:	df75                	beqz	a4,23a <main+0x4c>
 240:	43d8                	lw	a4,4(a5)
 242:	400216b7          	lui	a3,0x40021
 246:	9b71                	andi	a4,a4,-4
 248:	c3d8                	sw	a4,4(a5)
 24a:	43d8                	lw	a4,4(a5)
 24c:	00276713          	ori	a4,a4,2
 250:	c3d8                	sw	a4,4(a5)
 252:	4721                	li	a4,8
 254:	42dc                	lw	a5,4(a3)
 256:	8bb1                	andi	a5,a5,12
 258:	fee79ee3          	bne	a5,a4,254 <main+0x66>
 25c:	3f99                	jal	1b2 <GPIO_Toggle_INIT>
 25e:	40011937          	lui	s2,0x40011
 262:	4485                	li	s1,1
 264:	0ff00513          	li	a0,255
 268:	3f8d                	jal	1da <FirmwareDelay>
 26a:	80090413          	addi	s0,s2,-2048 # 40010800 <_eusrstack+0x20000800>
 26e:	c804                	sw	s1,16(s0)
 270:	0ff00513          	li	a0,255
 274:	379d                	jal	1da <FirmwareDelay>
 276:	c844                	sw	s1,20(s0)
 278:	b7f5                	j	264 <main+0x76>

0000027a <SystemInit>:
 27a:	400217b7          	lui	a5,0x40021
 27e:	4398                	lw	a4,0(a5)
 280:	f0ff06b7          	lui	a3,0xf0ff0
 284:	00176713          	ori	a4,a4,1
 288:	c398                	sw	a4,0(a5)
 28a:	43d8                	lw	a4,4(a5)
 28c:	8f75                	and	a4,a4,a3
 28e:	c3d8                	sw	a4,4(a5)
 290:	4398                	lw	a4,0(a5)
 292:	fef706b7          	lui	a3,0xfef70
 296:	16fd                	addi	a3,a3,-1 # fef6ffff <_eusrstack+0xdef5ffff>
 298:	8f75                	and	a4,a4,a3
 29a:	c398                	sw	a4,0(a5)
 29c:	4398                	lw	a4,0(a5)
 29e:	fffc06b7          	lui	a3,0xfffc0
 2a2:	16fd                	addi	a3,a3,-1 # fffbffff <_eusrstack+0xdffaffff>
 2a4:	8f75                	and	a4,a4,a3
 2a6:	c398                	sw	a4,0(a5)
 2a8:	43d8                	lw	a4,4(a5)
 2aa:	ff0106b7          	lui	a3,0xff010
 2ae:	16fd                	addi	a3,a3,-1 # ff00ffff <_eusrstack+0xdeffffff>
 2b0:	8f75                	and	a4,a4,a3
 2b2:	c3d8                	sw	a4,4(a5)
 2b4:	009f0737          	lui	a4,0x9f0
 2b8:	c798                	sw	a4,8(a5)
 2ba:	8082                	ret

000002bc <ADC1_2_IRQHandler>:
 2bc:	a001                	j	2bc <ADC1_2_IRQHandler>

000002be <handle_reset>:
 2be:	20000197          	auipc	gp,0x20000
 2c2:	54218193          	addi	gp,gp,1346 # 20000800 <__global_pointer$>
 2c6:	20010117          	auipc	sp,0x20010
 2ca:	d3a10113          	addi	sp,sp,-710 # 20010000 <_eusrstack>
 2ce:	34c00513          	li	a0,844
 2d2:	20000597          	auipc	a1,0x20000
 2d6:	d2e58593          	addi	a1,a1,-722 # 20000000 <_data_vma>
 2da:	20000617          	auipc	a2,0x20000
 2de:	d2660613          	addi	a2,a2,-730 # 20000000 <_data_vma>
 2e2:	00c5fa63          	bgeu	a1,a2,2f6 <handle_reset+0x38>
 2e6:	00052283          	lw	t0,0(a0)
 2ea:	0055a023          	sw	t0,0(a1)
 2ee:	0511                	addi	a0,a0,4
 2f0:	0591                	addi	a1,a1,4
 2f2:	fec5eae3          	bltu	a1,a2,2e6 <handle_reset+0x28>
 2f6:	20000517          	auipc	a0,0x20000
 2fa:	d0a50513          	addi	a0,a0,-758 # 20000000 <_data_vma>
 2fe:	20000597          	auipc	a1,0x20000
 302:	d0258593          	addi	a1,a1,-766 # 20000000 <_data_vma>
 306:	00b57763          	bgeu	a0,a1,314 <handle_reset+0x56>
 30a:	00052023          	sw	zero,0(a0)
 30e:	0511                	addi	a0,a0,4
 310:	feb56de3          	bltu	a0,a1,30a <handle_reset+0x4c>
 314:	42fd                	li	t0,31
 316:	bc029073          	csrw	0xbc0,t0
 31a:	428d                	li	t0,3
 31c:	80429073          	csrw	0x804,t0
 320:	08800293          	li	t0,136
 324:	30029073          	csrw	mstatus,t0
 328:	00000297          	auipc	t0,0x0
 32c:	cdc28293          	addi	t0,t0,-804 # 4 <_einit>
 330:	0032e293          	ori	t0,t0,3
 334:	30529073          	csrw	mtvec,t0
 338:	f43ff0ef          	jal	ra,27a <SystemInit>
 33c:	00000297          	auipc	t0,0x0
 340:	eb228293          	addi	t0,t0,-334 # 1ee <main>
 344:	34129073          	csrw	mepc,t0
 348:	30200073          	mret
